ccopy_reg
_reconstructor
p0
(csklearn.neighbors.classification
KNeighborsClassifier
p1
c__builtin__
object
p2
Ntp3
Rp4
(dp5
S'n_neighbors'
p6
I4
sS'algorithm'
p7
S'auto'
p8
sS'metric'
p9
S'chebyshev'
p10
sS'metric_params'
p11
NsS'p'
p12
I2
sS'radius'
p13
NsS'leaf_size'
p14
I30
sS'_fit_method'
p15
NsS'weights'
p16
S'distance'
p17
sS'_tree'
p18
NsS'_fit_X'
p19
Nsb.